; Function Attrs: mustprogress nofree nounwind willreturn memory(argmem: readwrite, inaccessiblemem: readwrite) uwtable
define internal noalias noundef ptr @tracking_zlib_alloc(ptr nocapture noundef %0, i32 noundef %1, i32 noundef %2) #9 {
  %4 = zext i32 %1 to i64
  %5 = zext i32 %2 to i64
  %6 = mul nuw i64 %5, %4
  %7 = load i64, ptr %0, align 8
  %8 = add i64 %7, %6
  store i64 %8, ptr %0, align 8
  %9 = tail call noalias ptr @calloc(i64 noundef %4, i64 noundef %5) #24
  ret ptr %9
}